target datalayout = "e-m:e-p270:32:32-p271:32:32-p272:64:64-i64:64-i128:128-f80:128-n8:16:32:64-S128"
target triple = "x86_64-pc-linux-gnu"

%struct.hashTypeIterator = type { ptr, i32, ptr, ptr, ptr, i64, ptr, ptr }

; Function Attrs: nounwind uwtable
define dso_local void @hashTypeReleaseIterator(ptr noundef %0) #1 {
  %2 = alloca ptr, align 8
  store ptr %0, ptr %2, align 8, !tbaa !10
  %3 = load ptr, ptr %2, align 8, !tbaa !10
  %4 = getelementptr inbounds nuw %struct.hashTypeIterator, ptr %3, i32 0, i32 1
  %5 = load i32, ptr %4, align 8, !tbaa !133
  %6 = icmp eq i32 %5, 2
  br i1 %6, label %7, label %11

7:                                                ; preds = %1
  %8 = load ptr, ptr %2, align 8, !tbaa !10
  %9 = getelementptr inbounds nuw %struct.hashTypeIterator, ptr %8, i32 0, i32 6
  %10 = load ptr, ptr %9, align 8, !tbaa !138
  call void @dictReleaseIterator(ptr noundef %10)
  br label %11

11:                                               ; preds = %7, %1
  %12 = load ptr, ptr %2, align 8, !tbaa !10
  call void @zfree(ptr noundef %12)
  ret void
}