; Function Attrs: nounwind uwtable
define dso_local void @hashTypeReleaseIterator(ptr noundef %0) local_unnamed_addr #1 {
  %2 = getelementptr inbounds nuw i8, ptr %0, i64 8
  %3 = load i32, ptr %2, align 8, !tbaa !113
  %4 = icmp eq i32 %3, 2
  br i1 %4, label %5, label %8

5:                                                ; preds = %1
  %6 = getelementptr inbounds nuw i8, ptr %0, i64 48
  %7 = load ptr, ptr %6, align 8, !tbaa !115
  tail call void @dictReleaseIterator(ptr noundef %7) #16
  br label %8

8:                                                ; preds = %5, %1
  tail call void @zfree(ptr noundef nonnull %0) #16
  ret void
}